target datalayout = "e-m:e-p270:32:32-p271:32:32-p272:64:64-i64:64-i128:128-f80:128-n8:16:32:64-S128"
target triple = "x86_64-pc-linux-gnu"

@.str.4 = private unnamed_addr constant [8 x i8] c"phar://\00", align 1
@.str.18 = private unnamed_addr constant [8 x i8] c"file://\00", align 1

; Function Attrs: inlinehint nounwind uwtable
define internal zeroext i1 @is_cacheable_stream_path(ptr noundef %0) #8 {
  %2 = alloca ptr, align 8
  store ptr %0, ptr %2, align 8, !tbaa !41
  %3 = load ptr, ptr %2, align 8, !tbaa !41
  %4 = call i32 @memcmp(ptr noundef %3, ptr noundef @.str.18, i64 noundef 7) #22
  %5 = icmp eq i32 %4, 0
  br i1 %5, label %10, label %6

6:                                                ; preds = %1
  %7 = load ptr, ptr %2, align 8, !tbaa !41
  %8 = call i32 @memcmp(ptr noundef %7, ptr noundef @.str.4, i64 noundef 7) #22
  %9 = icmp eq i32 %8, 0
  br label %10

10:                                               ; preds = %6, %1
  %11 = phi i1 [ true, %1 ], [ %9, %6 ]
  ret i1 %11
}