; Function Attrs: inlinehint mustprogress nofree nounwind willreturn memory(argmem: read) uwtable
define internal fastcc zeroext i1 @is_cacheable_stream_path(ptr noundef readonly captures(none) %0) unnamed_addr #8 {
  %bcmp = tail call i32 @bcmp(ptr noundef nonnull dereferenceable(7) %0, ptr noundef nonnull dereferenceable(7) @.str.18, i64 7)
  %2 = icmp eq i32 %bcmp, 0
  br i1 %2, label %5, label %3

3:                                                ; preds = %1
  %bcmp2 = tail call i32 @bcmp(ptr noundef nonnull dereferenceable(7) %0, ptr noundef nonnull dereferenceable(7) @.str.4, i64 7)
  %4 = icmp eq i32 %bcmp2, 0
  br label %5

5:                                                ; preds = %3, %1
  %6 = phi i1 [ true, %1 ], [ %4, %3 ]
  ret i1 %6
}